target datalayout = "e-m:e-p270:32:32-p271:32:32-p272:64:64-i64:64-i128:128-f80:128-n8:16:32:64-S128"
target triple = "x86_64-pc-linux-gnu"

%struct.grpc_slice = type { ptr, %"union.grpc_slice::grpc_slice_data" }
%"union.grpc_slice::grpc_slice_data" = type { %"struct.grpc_slice::grpc_slice_data::grpc_slice_refcounted", [8 x i8] }
%"struct.grpc_slice::grpc_slice_data::grpc_slice_refcounted" = type { i64, ptr }
%"class.grpc_core::channelz::ChannelTrace::TraceEvent" = type { %struct.gpr_timespec, i32, %struct.grpc_slice, i64, %"class.grpc_core::RefCountedPtr", ptr }
%struct.gpr_timespec = type { i64, i32, i32 }
%"class.grpc_core::RefCountedPtr" = type { ptr }
%"struct.std::atomic" = type { %"struct.std::__atomic_base" }
%"struct.std::__atomic_base" = type { i64 }
%"class.grpc_core::channelz::ChannelTrace" = type { i64, %struct.gpr_timespec, %"class.absl::lts_20240722::Mutex", i64, i64, ptr, ptr }
%"class.absl::lts_20240722::Mutex" = type { %"struct.std::atomic" }
%"class.absl::lts_20240722::MutexLock" = type { ptr }

@_ZN9grpc_core8channelz12ChannelTrace10TraceEventD1Ev = unnamed_addr alias void (ptr), ptr @_ZN9grpc_core8channelz12ChannelTrace10TraceEventD2Ev

; Function Attrs: mustprogress nounwind uwtable
define linkonce_odr void @_ZN4absl12lts_202407229MutexLockD2Ev(ptr noundef nonnull align 8 dereferenceable(8) %0) unnamed_addr #7 comdat align 2 personality ptr @__gxx_personality_v0 {
  %2 = alloca ptr, align 8
  store ptr %0, ptr %2, align 8, !tbaa !104
  %3 = load ptr, ptr %2, align 8
  %4 = getelementptr inbounds nuw %"class.absl::lts_20240722::MutexLock", ptr %3, i32 0, i32 0
  %5 = load ptr, ptr %4, align 8, !tbaa !106
  invoke void @_ZN4absl12lts_202407225Mutex6UnlockEv(ptr noundef nonnull align 8 dereferenceable(8) %5)
          to label %6 unwind label %7

6:                                                ; preds = %1
  ret void

7:                                                ; preds = %1
  %8 = landingpad { ptr, i32 }
          catch ptr null
  %9 = extractvalue { ptr, i32 } %8, 0
  call void @__clang_call_terminate(ptr %9) #20
  unreachable
}

; Function Attrs: mustprogress nounwind uwtable
define linkonce_odr noundef i64 @_ZNK9grpc_core8channelz12ChannelTrace10TraceEvent12memory_usageEv(ptr noundef nonnull align 8 dereferenceable(80) %0) #7 comdat align 2 {
  %2 = alloca ptr, align 8
  store ptr %0, ptr %2, align 8, !tbaa !3
  %3 = load ptr, ptr %2, align 8
  %4 = getelementptr inbounds nuw %"class.grpc_core::channelz::ChannelTrace::TraceEvent", ptr %3, i32 0, i32 3
  %5 = load i64, ptr %4, align 8, !tbaa !27
  ret i64 %5
}

; Function Attrs: mustprogress nounwind uwtable
define linkonce_odr noundef ptr @_ZNK9grpc_core8channelz12ChannelTrace10TraceEvent4nextEv(ptr noundef nonnull align 8 dereferenceable(80) %0) #7 comdat align 2 {
  %2 = alloca ptr, align 8
  store ptr %0, ptr %2, align 8, !tbaa !3
  %3 = load ptr, ptr %2, align 8
  %4 = getelementptr inbounds nuw %"class.grpc_core::channelz::ChannelTrace::TraceEvent", ptr %3, i32 0, i32 5
  %5 = load ptr, ptr %4, align 8, !tbaa !28
  ret ptr %5
}

; Function Attrs: mustprogress nounwind uwtable
define linkonce_odr void @_ZN9grpc_core8channelz12ChannelTrace10TraceEvent8set_nextEPS2_(ptr noundef nonnull align 8 dereferenceable(80) %0, ptr noundef %1) #7 comdat align 2 {
  %3 = alloca ptr, align 8
  %4 = alloca ptr, align 8
  store ptr %0, ptr %3, align 8, !tbaa !3
  store ptr %1, ptr %4, align 8, !tbaa !3
  %5 = load ptr, ptr %3, align 8
  %6 = load ptr, ptr %4, align 8, !tbaa !3
  %7 = getelementptr inbounds nuw %"class.grpc_core::channelz::ChannelTrace::TraceEvent", ptr %5, i32 0, i32 5
  store ptr %6, ptr %7, align 8, !tbaa !28
  ret void
}

; Function Attrs: mustprogress uwtable
define linkonce_odr void @_ZN4absl12lts_202407229MutexLockC2EPNS0_5MutexE(ptr noundef nonnull align 8 dereferenceable(8) %0, ptr noundef %1) unnamed_addr #4 comdat align 2 {
  %3 = alloca ptr, align 8
  %4 = alloca ptr, align 8
  store ptr %0, ptr %3, align 8, !tbaa !104
  store ptr %1, ptr %4, align 8, !tbaa !99
  %5 = load ptr, ptr %3, align 8
  %6 = getelementptr inbounds nuw %"class.absl::lts_20240722::MutexLock", ptr %5, i32 0, i32 0
  %7 = load ptr, ptr %4, align 8, !tbaa !99
  store ptr %7, ptr %6, align 8, !tbaa !106
  %8 = getelementptr inbounds nuw %"class.absl::lts_20240722::MutexLock", ptr %5, i32 0, i32 0
  %9 = load ptr, ptr %8, align 8, !tbaa !106
  call void @_ZN4absl12lts_202407225Mutex4LockEv(ptr noundef nonnull align 8 dereferenceable(8) %9)
  ret void
}

; Function Attrs: mustprogress uwtable
define void @_ZN9grpc_core8channelz12ChannelTrace19AddTraceEventHelperEPNS1_10TraceEventE(ptr noundef nonnull align 8 dereferenceable(64) %0, ptr noundef %1) #4 align 2 personality ptr @__gxx_personality_v0 {
  %3 = alloca ptr, align 8
  %4 = alloca ptr, align 8
  %5 = alloca %"class.absl::lts_20240722::MutexLock", align 8
  %6 = alloca ptr, align 8
  %7 = alloca i32, align 4
  %8 = alloca ptr, align 8
  store ptr %0, ptr %3, align 8, !tbaa !90
  store ptr %1, ptr %4, align 8, !tbaa !3
  %9 = load ptr, ptr %3, align 8
  call void @llvm.lifetime.start.p0(i64 8, ptr %5) #3
  %10 = getelementptr inbounds nuw %"class.grpc_core::channelz::ChannelTrace", ptr %9, i32 0, i32 2
  call void @_ZN4absl12lts_202407229MutexLockC2EPNS0_5MutexE(ptr noundef nonnull align 8 dereferenceable(8) %5, ptr noundef %10)
  %11 = getelementptr inbounds nuw %"class.grpc_core::channelz::ChannelTrace", ptr %9, i32 0, i32 3
  %12 = load i64, ptr %11, align 8, !tbaa !95
  %13 = add i64 %12, 1
  store i64 %13, ptr %11, align 8, !tbaa !95
  %14 = getelementptr inbounds nuw %"class.grpc_core::channelz::ChannelTrace", ptr %9, i32 0, i32 5
  %15 = load ptr, ptr %14, align 8, !tbaa !97
  %16 = icmp eq ptr %15, null
  br i1 %16, label %17, label %21

17:                                               ; preds = %2
  %18 = load ptr, ptr %4, align 8, !tbaa !3
  %19 = getelementptr inbounds nuw %"class.grpc_core::channelz::ChannelTrace", ptr %9, i32 0, i32 6
  store ptr %18, ptr %19, align 8, !tbaa !98
  %20 = getelementptr inbounds nuw %"class.grpc_core::channelz::ChannelTrace", ptr %9, i32 0, i32 5
  store ptr %18, ptr %20, align 8, !tbaa !97
  br label %35

21:                                               ; preds = %2
  %22 = getelementptr inbounds nuw %"class.grpc_core::channelz::ChannelTrace", ptr %9, i32 0, i32 6
  %23 = load ptr, ptr %22, align 8, !tbaa !98
  %24 = load ptr, ptr %4, align 8, !tbaa !3
  invoke void @_ZN9grpc_core8channelz12ChannelTrace10TraceEvent8set_nextEPS2_(ptr noundef nonnull align 8 dereferenceable(80) %23, ptr noundef %24)
          to label %25 unwind label %31

25:                                               ; preds = %21
  %26 = getelementptr inbounds nuw %"class.grpc_core::channelz::ChannelTrace", ptr %9, i32 0, i32 6
  %27 = load ptr, ptr %26, align 8, !tbaa !98
  %28 = invoke noundef ptr @_ZNK9grpc_core8channelz12ChannelTrace10TraceEvent4nextEv(ptr noundef nonnull align 8 dereferenceable(80) %27)
          to label %29 unwind label %31

29:                                               ; preds = %25
  %30 = getelementptr inbounds nuw %"class.grpc_core::channelz::ChannelTrace", ptr %9, i32 0, i32 6
  store ptr %28, ptr %30, align 8, !tbaa !98
  br label %35

31:                                               ; preds = %35, %25, %21
  %32 = landingpad { ptr, i32 }
          cleanup
  %33 = extractvalue { ptr, i32 } %32, 0
  store ptr %33, ptr %6, align 8
  %34 = extractvalue { ptr, i32 } %32, 1
  store i32 %34, ptr %7, align 4
  br label %71

35:                                               ; preds = %29, %17
  %36 = load ptr, ptr %4, align 8, !tbaa !3
  %37 = invoke noundef i64 @_ZNK9grpc_core8channelz12ChannelTrace10TraceEvent12memory_usageEv(ptr noundef nonnull align 8 dereferenceable(80) %36)
          to label %38 unwind label %31

38:                                               ; preds = %35
  %39 = getelementptr inbounds nuw %"class.grpc_core::channelz::ChannelTrace", ptr %9, i32 0, i32 4
  %40 = load i64, ptr %39, align 8, !tbaa !96
  %41 = add i64 %40, %37
  store i64 %41, ptr %39, align 8, !tbaa !96
  br label %42

42:                                               ; preds = %65, %38
  %43 = getelementptr inbounds nuw %"class.grpc_core::channelz::ChannelTrace", ptr %9, i32 0, i32 4
  %44 = load i64, ptr %43, align 8, !tbaa !96
  %45 = getelementptr inbounds nuw %"class.grpc_core::channelz::ChannelTrace", ptr %9, i32 0, i32 0
  %46 = load i64, ptr %45, align 8, !tbaa !92
  %47 = icmp ugt i64 %44, %46
  br i1 %47, label %48, label %70

48:                                               ; preds = %42
  call void @llvm.lifetime.start.p0(i64 8, ptr %8) #3
  %49 = getelementptr inbounds nuw %"class.grpc_core::channelz::ChannelTrace", ptr %9, i32 0, i32 5
  %50 = load ptr, ptr %49, align 8, !tbaa !97
  store ptr %50, ptr %8, align 8, !tbaa !3
  %51 = load ptr, ptr %8, align 8, !tbaa !3
  %52 = invoke noundef i64 @_ZNK9grpc_core8channelz12ChannelTrace10TraceEvent12memory_usageEv(ptr noundef nonnull align 8 dereferenceable(80) %51)
          to label %53 unwind label %66

53:                                               ; preds = %48
  %54 = getelementptr inbounds nuw %"class.grpc_core::channelz::ChannelTrace", ptr %9, i32 0, i32 4
  %55 = load i64, ptr %54, align 8, !tbaa !96
  %56 = sub i64 %55, %52
  store i64 %56, ptr %54, align 8, !tbaa !96
  %57 = getelementptr inbounds nuw %"class.grpc_core::channelz::ChannelTrace", ptr %9, i32 0, i32 5
  %58 = load ptr, ptr %57, align 8, !tbaa !97
  %59 = invoke noundef ptr @_ZNK9grpc_core8channelz12ChannelTrace10TraceEvent4nextEv(ptr noundef nonnull align 8 dereferenceable(80) %58)
          to label %60 unwind label %66

60:                                               ; preds = %53
  %61 = getelementptr inbounds nuw %"class.grpc_core::channelz::ChannelTrace", ptr %9, i32 0, i32 5
  store ptr %59, ptr %61, align 8, !tbaa !97
  %62 = load ptr, ptr %8, align 8, !tbaa !3
  %63 = icmp eq ptr %62, null
  br i1 %63, label %65, label %64

64:                                               ; preds = %60
  call void @_ZN9grpc_core8channelz12ChannelTrace10TraceEventD1Ev(ptr noundef nonnull align 8 dereferenceable(80) %62) #3
  call void @_ZdlPvm(ptr noundef %62, i64 noundef 80) #22
  br label %65

65:                                               ; preds = %64, %60
  call void @llvm.lifetime.end.p0(i64 8, ptr %8) #3
  br label %42, !llvm.loop !103

66:                                               ; preds = %53, %48
  %67 = landingpad { ptr, i32 }
          cleanup
  %68 = extractvalue { ptr, i32 } %67, 0
  store ptr %68, ptr %6, align 8
  %69 = extractvalue { ptr, i32 } %67, 1
  store i32 %69, ptr %7, align 4
  call void @llvm.lifetime.end.p0(i64 8, ptr %8) #3
  br label %71

70:                                               ; preds = %42
  call void @_ZN4absl12lts_202407229MutexLockD2Ev(ptr noundef nonnull align 8 dereferenceable(8) %5) #3
  call void @llvm.lifetime.end.p0(i64 8, ptr %5) #3
  ret void

71:                                               ; preds = %66, %31
  call void @_ZN4absl12lts_202407229MutexLockD2Ev(ptr noundef nonnull align 8 dereferenceable(8) %5) #3
  call void @llvm.lifetime.end.p0(i64 8, ptr %5) #3
  br label %72

72:                                               ; preds = %71
  %73 = load ptr, ptr %6, align 8
  %74 = load i32, ptr %7, align 4
  %75 = insertvalue { ptr, i32 } poison, ptr %73, 0
  %76 = insertvalue { ptr, i32 } %75, i32 %74, 1
  resume { ptr, i32 } %76
}