; Function Attrs: mustprogress uwtable
define void @_ZN9grpc_core8channelz12ChannelTrace19AddTraceEventHelperEPNS1_10TraceEventE(ptr noundef nonnull align 8 dereferenceable(64) %0, ptr noundef %1) local_unnamed_addr #9 align 2 personality ptr @__gxx_personality_v0 {
  %3 = getelementptr inbounds nuw i8, ptr %0, i64 24
  tail call void @_ZN4absl12lts_202407225Mutex4LockEv(ptr noundef nonnull align 8 dereferenceable(8) %3)
  %4 = getelementptr inbounds nuw i8, ptr %0, i64 32
  %5 = load i64, ptr %4, align 8, !tbaa !103
  %6 = add i64 %5, 1
  store i64 %6, ptr %4, align 8, !tbaa !103
  %7 = getelementptr inbounds nuw i8, ptr %0, i64 48
  %8 = load ptr, ptr %7, align 8, !tbaa !104
  %9 = icmp eq ptr %8, null
  %10 = getelementptr inbounds nuw i8, ptr %0, i64 56
  br i1 %9, label %11, label %12

11:                                               ; preds = %2
  store ptr %1, ptr %10, align 8, !tbaa !105
  store ptr %1, ptr %7, align 8, !tbaa !104
  br label %15

12:                                               ; preds = %2
  %13 = load ptr, ptr %10, align 8, !tbaa !105
  %14 = getelementptr inbounds nuw i8, ptr %13, i64 72
  store ptr %1, ptr %14, align 8, !tbaa !27
  store ptr %1, ptr %10, align 8, !tbaa !105
  br label %15

15:                                               ; preds = %12, %11
  %16 = getelementptr inbounds nuw i8, ptr %1, i64 56
  %17 = load i64, ptr %16, align 8, !tbaa !25
  %18 = getelementptr inbounds nuw i8, ptr %0, i64 40
  %19 = load i64, ptr %18, align 8, !tbaa !106
  %20 = add i64 %19, %17
  store i64 %20, ptr %18, align 8, !tbaa !106
  %21 = load i64, ptr %0, align 8, !tbaa !99
  %22 = icmp ugt i64 %20, %21
  br i1 %22, label %.lr.ph, label %._crit_edge

.lr.ph:                                           ; preds = %15, %.lr.ph
  %23 = phi i64 [ %30, %.lr.ph ], [ %20, %15 ]
  %24 = load ptr, ptr %7, align 8, !tbaa !104
  %25 = getelementptr inbounds nuw i8, ptr %24, i64 56
  %26 = load i64, ptr %25, align 8, !tbaa !25
  %27 = sub i64 %23, %26
  store i64 %27, ptr %18, align 8, !tbaa !106
  %28 = getelementptr inbounds nuw i8, ptr %24, i64 72
  %29 = load ptr, ptr %28, align 8, !tbaa !27
  store ptr %29, ptr %7, align 8, !tbaa !104
  tail call void @_ZN9grpc_core8channelz12ChannelTrace10TraceEventD1Ev(ptr noundef nonnull align 8 dereferenceable(80) %24) #23
  tail call void @_ZdlPvm(ptr noundef %24, i64 noundef 80) #26
  %30 = load i64, ptr %18, align 8, !tbaa !106
  %31 = load i64, ptr %0, align 8, !tbaa !99
  %32 = icmp ugt i64 %30, %31
  br i1 %32, label %.lr.ph, label %._crit_edge, !llvm.loop !107

._crit_edge:                                      ; preds = %.lr.ph, %15
  invoke void @_ZN4absl12lts_202407225Mutex6UnlockEv(ptr noundef nonnull align 8 dereferenceable(8) %3)
          to label %_ZN4absl12lts_202407229MutexLockD2Ev.exit unwind label %33

33:                                               ; preds = %._crit_edge
  %34 = landingpad { ptr, i32 }
          catch ptr null
  %35 = extractvalue { ptr, i32 } %34, 0
  tail call void @__clang_call_terminate(ptr %35) #24
  unreachable

_ZN4absl12lts_202407229MutexLockD2Ev.exit:        ; preds = %._crit_edge
  ret void
}